target datalayout = "e-m:e-p270:32:32-p271:32:32-p272:64:64-i64:64-i128:128-f80:128-n8:16:32:64-S128"
target triple = "x86_64-pc-linux-gnu"

%struct.mbedtls_cipher_info_t = type { i32, i32, i32, ptr, i32, i32, i32, ptr }
%struct.mbedtls_cipher_context_t = type { ptr, i32, i32, [16 x i8], i64, [16 x i8], i64, ptr }

; Function Attrs: mustprogress uwtable
define hidden i32 @mbedtls_cipher_update_ad(ptr noundef %0, ptr noundef %1, i64 noundef %2) #4 {
  %4 = alloca i32, align 4
  %5 = alloca ptr, align 8
  %6 = alloca ptr, align 8
  %7 = alloca i64, align 8
  store ptr %0, ptr %5, align 8, !tbaa !36
  store ptr %1, ptr %6, align 8, !tbaa !20
  store i64 %2, ptr %7, align 8, !tbaa !52
  br label %8

8:                                                ; preds = %3
  br label %9

9:                                                ; preds = %8
  br label %10

10:                                               ; preds = %9
  br label %11

11:                                               ; preds = %10
  %12 = load ptr, ptr %5, align 8, !tbaa !36
  %13 = getelementptr inbounds nuw %struct.mbedtls_cipher_context_t, ptr %12, i32 0, i32 0
  %14 = load ptr, ptr %13, align 8, !tbaa !42
  %15 = icmp eq ptr %14, null
  br i1 %15, label %16, label %17

16:                                               ; preds = %11
  store i32 -24832, ptr %4, align 4
  br label %32

17:                                               ; preds = %11
  %18 = load ptr, ptr %5, align 8, !tbaa !36
  %19 = getelementptr inbounds nuw %struct.mbedtls_cipher_context_t, ptr %18, i32 0, i32 0
  %20 = load ptr, ptr %19, align 8, !tbaa !42
  %21 = getelementptr inbounds nuw %struct.mbedtls_cipher_info_t, ptr %20, i32 0, i32 1
  %22 = load i32, ptr %21, align 4, !tbaa !34
  %23 = icmp eq i32 6, %22
  br i1 %23, label %24, label %31

24:                                               ; preds = %17
  %25 = load ptr, ptr %5, align 8, !tbaa !36
  %26 = getelementptr inbounds nuw %struct.mbedtls_cipher_context_t, ptr %25, i32 0, i32 7
  %27 = load ptr, ptr %26, align 8, !tbaa !38
  %28 = load ptr, ptr %6, align 8, !tbaa !20
  %29 = load i64, ptr %7, align 8, !tbaa !52
  %30 = call i32 @mbedtls_gcm_update_ad(ptr noundef %27, ptr noundef %28, i64 noundef %29)
  store i32 %30, ptr %4, align 4
  br label %32

31:                                               ; preds = %17
  store i32 0, ptr %4, align 4
  br label %32

32:                                               ; preds = %31, %24, %16
  %33 = load i32, ptr %4, align 4
  ret i32 %33
}