; Function Attrs: mustprogress uwtable
define hidden i32 @mbedtls_cipher_update_ad(ptr noundef readonly captures(none) %0, ptr noundef %1, i64 noundef %2) local_unnamed_addr #8 {
  %4 = load ptr, ptr %0, align 8, !tbaa !33
  %5 = icmp eq ptr %4, null
  br i1 %5, label %14, label %6

6:                                                ; preds = %3
  %7 = getelementptr inbounds nuw i8, ptr %4, i64 4
  %8 = load i32, ptr %7, align 4, !tbaa !27
  %9 = icmp eq i32 %8, 6
  br i1 %9, label %10, label %14

10:                                               ; preds = %6
  %11 = getelementptr inbounds nuw i8, ptr %0, i64 64
  %12 = load ptr, ptr %11, align 8, !tbaa !29
  %13 = tail call i32 @mbedtls_gcm_update_ad(ptr noundef %12, ptr noundef %1, i64 noundef %2)
  br label %14

14:                                               ; preds = %6, %3, %10
  %.0 = phi i32 [ %13, %10 ], [ -24832, %3 ], [ 0, %6 ]
  ret i32 %.0
}